CCS PCM C Compiler, Version 4.104, 5967               15-jul-17 22:37

               Filename: C:\DADOS\projeto\MicrochipPICBoilerplateCCS\main.lst

               ROM used: 66 words (3%)
                         Largest free fragment is 1982
               RAM used: 10 (4%) at main() level
                         10 (4%) worst case
               Stack:    1 worst case (0 in main + 1 for interrupts)

*
0000:  MOVLW  00
0001:  MOVWF  0A
0002:  GOTO   013
0003:  NOP
.................... //**************************************************************************** 
.................... //                              NOME PROJETO 
.................... //**************************************************************************** 
.................... //Compilador CCS PCWH Ver 4.104 
....................  
.................... #include <16F628.h>              //include do 16F628 
.................... //////// Standard Header file for the PIC16F628 device //////////////// 
.................... #device PIC16F628 
.................... #list 
....................  
.................... #include <string.h> 
.................... //////////////////////////////////////////////////////////////////////////// 
.................... ////        (C) Copyright 1996,2008 Custom Computer Services            //// 
.................... //// This source code may only be used by licensed users of the CCS C   //// 
.................... //// compiler.  This source code may only be distributed to other       //// 
.................... //// licensed users of the CCS C compiler.  No other use, reproduction  //// 
.................... //// or distribution is permitted without written permission.           //// 
.................... //// Derivative programs created using this software in object code     //// 
.................... //// form are not restricted in any way.                                //// 
.................... //////////////////////////////////////////////////////////////////////////// 
....................  
.................... #ifndef _STRING 
.................... #define _STRING 
.................... #include <stddef.h> 
.................... /////////////////////////////////////////////////////////////////////////// 
.................... ////        (C) Copyright 1996,2003 Custom Computer Services           //// 
.................... //// This source code may only be used by licensed users of the CCS C  //// 
.................... //// compiler.  This source code may only be distributed to other      //// 
.................... //// licensed users of the CCS C compiler.  No other use, reproduction //// 
.................... //// or distribution is permitted without written permission.          //// 
.................... //// Derivative programs created using this software in object code    //// 
.................... //// form are not restricted in any way.                               //// 
.................... /////////////////////////////////////////////////////////////////////////// 
....................  
.................... #ifndef _STDDEF 
....................  
.................... #define _STDDEF 
....................  
.................... #if sizeof(unsigned int8 *)==1 
.................... #define ptrdiff_t unsigned int8 
.................... #else 
.................... #define ptrdiff_t unsigned int16 
.................... #endif 
....................  
.................... #define size_t unsigned int8 
.................... #define wchar_t char 
.................... #define NULL 0 
....................  
.................... #define offsetof(s,f) (offsetofbit(s,f)/8) 
....................  
.................... #endif 
....................  
.................... #include <ctype.h> 
.................... //////////////////////////////////////////////////////////////////////////// 
.................... ////        (C) Copyright 1996,2003 Custom Computer Services            //// 
.................... //// This source code may only be used by licensed users of the CCS C   //// 
.................... //// compiler.  This source code may only be distributed to other       //// 
.................... //// licensed users of the CCS C compiler.  No other use, reproduction  //// 
.................... //// or distribution is permitted without written permission.           //// 
.................... //// Derivative programs created using this software in object code     //// 
.................... //// form are not restricted in any way.                                //// 
.................... //////////////////////////////////////////////////////////////////////////// 
....................  
.................... #ifndef _CTYPE 
.................... #define _CTYPE 
....................  
.................... #define islower(x)  isamong(x,"abcdefghijklmnopqrstuvwxyz") 
.................... #define isupper(x)  isamong(x,"ABCDEFGHIJKLMNOPQRSTUVWXYZ") 
.................... #define isalnum(x)  isamong(x,"0123456789ABCDEFGHIJKLMNOPQRSTUVWXYZabcdefghijklmnopqrstuvwxyz") 
.................... #define isalpha(x)  isamong(x,"ABCDEFGHIJKLMNOPQRSTUVWXYZabcdefghijklmnopqrstuvwxyz") 
.................... #define isdigit(x)  isamong(x,"0123456789") 
.................... #define isspace(x)  ((x)==' ') 
.................... #define isxdigit(x) isamong(x,"0123456789ABCDEFabcdef") 
.................... #define iscntrl(x)  ((x)<' ') 
.................... #define isprint(x)  ((x)>=' ') 
.................... #define isgraph(x)  ((x)>' ') 
.................... #define ispunct(x)  (((x)>' ')&&!isalnum(x)) 
....................  
.................... #endif 
....................  
....................  
....................  
....................  
....................  
.................... ////////////////////////////////////////////// 
.................... //// Uncomment the following define to    //// 
.................... //// allow some functions to use a        //// 
.................... //// quicker algorithm, but use more ROM  //// 
.................... ////                                      //// 
.................... //// #define FASTER_BUT_MORE_ROM          //// 
.................... ////////////////////////////////////////////// 
....................  
....................  
....................  
.................... /*Copying functions*/ 
.................... /* standard template: 
....................    void *memmove(void *s1, void *s2, size_t n). 
....................    Copies max of n characters safely (not following ending '\0') 
....................    from s2 in s1; if s2 has less than n characters, appends 0 */ 
....................  
.................... char *memmove(void *s1,char *s2,size_t n) 
.................... { 
....................    char *sc1; 
....................    char *sc2; 
....................    sc1=s1; 
....................    sc2=s2; 
....................    if(sc2<sc1 && sc1 <sc2 +n) 
....................       for(sc1+=n,sc2+=n;0<n;--n) 
....................          *--sc1=*--sc2; 
....................    else 
....................       for(;0<n;--n) 
....................          *sc1++=*sc2++; 
....................   return s1; 
....................   } 
....................  
.................... /* Standard template: char *strcpy(char *s1, const char *s2) 
....................    copies the string s2 including the null character to s1. 
....................    This is a compiler built in to handle the different address 
....................    spaces */ 
....................  
.................... #define strcopy strcpy 
....................  
.................... /* standard template: 
....................    char *strncpy(char *s1, const char *s2, size_t n). 
....................    Copies max of n characters (not following ending '\0') 
....................    from s2 in s1; if s2 has less than n characters, appends 0 */ 
....................  
.................... char *strncpy(char *s1, char *s2, size_t n) 
.................... { 
....................   char *s; 
....................  
....................   for (s = s1; n > 0 && *s2 != '\0'; n--) 
....................      *s++ = *s2++; 
....................   for (; n > 0; n--) 
....................      *s++ = '\0'; 
....................  
....................   return(s1); 
.................... } 
.................... /***********************************************************/ 
....................  
.................... /*concatenation functions*/ 
.................... /* standard template: char *strcat(char *s1, const char *s2) 
.................... appends s2 to s1*/ 
....................  
.................... char *strcat(char *s1, char *s2) 
.................... { 
....................    char *s; 
....................  
....................    for (s = s1; *s != '\0'; ++s); 
....................    while(*s2 != '\0') 
....................    { 
....................       *s = *s2; 
....................       ++s; 
....................       ++s2; 
....................    } 
....................  
....................    *s = '\0'; 
....................    return(s1); 
.................... } 
.................... /* standard template: char *strncat(char *s1, char *s2,size_t n) 
.................... appends not more than n characters from s2 to s1*/ 
....................  
.................... char *strncat(char *s1, char *s2, size_t n) 
.................... { 
....................    char *s; 
....................  
....................    for (s = s1; *s != '\0'; ++s); 
....................    while(*s2 != '\0' && 0<n) 
....................    { 
....................       *s = *s2; 
....................       ++s; 
....................       ++s2; 
....................       --n; 
....................    } 
....................  
....................    *s = '\0'; 
....................    return(s1); 
.................... } 
....................  
.................... /***********************************************************/ 
....................  
....................  
.................... /*comparison functions*/ 
.................... /* standard template: signed int memcmp(void *s1, void *s2). 
....................    Compares s1 & s2; returns -1 if s1<s2, 0 if s1=s2, 1 if s1>s2 */ 
....................  
.................... signed int8 memcmp(void * s1,char *s2,size_t n) 
.................... { 
.................... char *su1, *su2; 
.................... for(su1=s1, su2=s2; 0<n; ++su1, ++su2, --n) 
.................... { 
....................    if(*su1!=*su2) 
....................       return ((*su1<*su2)?-1:+1); 
.................... } 
.................... return 0; 
.................... } 
....................  
.................... /* standard template: int strcmp(const char *s1, const char *s2). 
....................    Compares s1 & s2; returns -1 if s1<s2, 0 if s1=s2, 1 if s1>s2 */ 
....................  
.................... signed int8 strcmp(char *s1, char *s2) 
.................... { 
....................    for (; *s1 == *s2; s1++, s2++) 
....................       if (*s1 == '\0') 
....................          return(0); 
....................    return((*s1 < *s2) ? -1: 1); 
.................... } 
.................... /* standard template: int strcoll(const char *s1, const char *s2). 
....................    Compares s1 & s2; returns -1 if s1<s2, 0 if s1=s2, 1 if s1>s2 */ 
....................  
.................... signed int8 strcoll(char *s1, char *s2) 
.................... { 
....................    for (; *s1 == *s2; s1++, s2++) 
....................       if (*s1 == '\0') 
....................          return(0); 
....................    return((*s1 < *s2) ? -1: 1); 
.................... } 
....................  
.................... /* standard template: 
....................    int strncmp(const char *s1, const char *s2, size_t n). 
....................    Compares max of n characters (not following 0) from s1 to s2; 
....................    returns same as strcmp */ 
....................  
.................... signed int8 strncmp(char *s1, char *s2, size_t n) 
.................... { 
....................    for (; n > 0; s1++, s2++, n--) 
....................       if (*s1 != *s2) 
....................          return((*s1 <*s2) ? -1: 1); 
....................       else if (*s1 == '\0') 
....................          return(0); 
....................    return(0); 
.................... } 
.................... /* standard template: 
....................    int strxfrm(const char *s1, const char *s2, size_t n). 
....................    transforms maximum of n characters from s2 and places them into s1*/ 
.................... size_t strxfrm(char *s1, char *s2, size_t n) 
.................... { 
....................   char *s; 
....................   unsigned int8 n1; 
....................   n1=n; 
....................   for (s = s1; n > 0 && *s2 != '\0'; n--) 
....................      *s++ = *s2++; 
....................   for (; n > 0; n--) 
....................      *s++ = '\0'; 
....................  
....................   return(n1); 
.................... } 
....................  
....................  
....................  
....................  
....................  
.................... /***********************************************************/ 
.................... /*Search functions*/ 
.................... /* standard template: void *memchr(const char *s, int c). 
....................    Finds first occurrence of c in n characters of s */ 
....................  
.................... char *memchr(void *s,unsigned int8 c,size_t n) 
.................... { 
....................    char uc; 
....................    char *su; 
....................    uc=c; 
....................    for(su=s;0<n;++su,--n) 
....................       if(*su==uc) 
....................       return su; 
....................    return NULL; 
.................... } 
....................  
.................... /* standard template: char *strchr(const char *s, int c). 
....................    Finds first occurrence of c in s */ 
....................  
.................... char *strchr(char *s, unsigned int8 c) 
.................... { 
....................    for (; *s != c; s++) 
....................       if (*s == '\0') 
....................          return(0); 
....................    return(s); 
.................... } 
.................... /* standard template: 
....................    size_t strcspn(const char *s1, const char *s2). 
....................    Computes length of max initial segment of s1 that 
....................    consists entirely of characters NOT from s2*/ 
....................  
.................... unsigned int8  strcspn(char *s1, char *s2) 
.................... { 
....................    char *sc1, *sc2; 
....................  
....................    for (sc1 = s1; *sc1 != 0; sc1++) 
....................       for (sc2 = s2; *sc2 != 0; sc2++) 
....................          if (*sc1 == *sc2) 
....................             return(sc1 - s1); 
....................    return(sc1 - s1); 
.................... } 
.................... /* standard template: 
....................    char *strpbrk(const char *s1, const char *s2). 
....................    Locates first occurence of any character from s2 in s1; 
....................    returns s1 if s2 is empty string */ 
....................  
.................... char *strpbrk(char *s1, char *s2) 
.................... { 
....................    char *sc1, *sc2; 
....................  
....................    for (sc1 = s1; *sc1 != 0; sc1++) 
....................       for (sc2 = s2; *sc2 != 0; sc2++) 
....................          if (*sc1 == *sc2) 
....................             return(sc1); 
....................    return(0); 
.................... } 
....................  
....................  
.................... /* standard template: char *strrchr(const char *s, int c). 
....................    Finds last occurrence of c in s */ 
....................  
.................... char *strrchr(char *s, unsigned int8 c) 
.................... { 
....................    char *p; 
....................  
....................    for (p = 0; ; s++) 
....................    { 
....................       if (*s == c) 
....................          p = s; 
....................       if (*s == '\0') 
....................          return(p); 
....................    } 
.................... } 
.................... /* computes length of max initial segment of s1 consisting 
....................    entirely of characters from s2 */ 
....................  
.................... unsigned int8  strspn(char *s1, char *s2) 
.................... { 
....................    char *sc1, *sc2; 
....................  
....................    for (sc1 = s1; *sc1 != 0; sc1++) 
....................       for (sc2 = s2; ; sc2++) 
....................     if (*sc2 == '\0') 
....................        return(sc1 - s1); 
....................          else if (*sc1 == *sc2) 
....................             break; 
....................    return(sc1 - s1); 
.................... } 
.................... /* standard template: 
....................    char *strstr(const char *s1, const char *s2); 
....................    Locates first occurence of character sequence s2 in s1; 
....................    returns 0 if s2 is empty string 
....................  
....................    Uncomment #define FASTER_BUT_MORE_ROM at the top of the 
....................    file to use the faster algorithm */ 
.................... char *strstr(char *s1, char *s2) 
.................... { 
....................    char *s, *t; 
....................  
....................    #ifdef FASTER_BUT_MORE_ROM 
....................    if (*s2 == '\0') 
....................          return(s1); 
....................    #endif 
....................  
....................    while (*s1) 
....................    { 
....................       for(s = s1, t = s2; *t && (*s == *t); ++s, ++t); 
....................  
....................       if (*t == '\0') 
....................          return s1; 
....................       ++s1; 
....................       #ifdef FASTER_BUT_MORE_ROM 
....................          while(*s1 != '\0' && *s1 != *s2) 
....................             ++s1; 
....................       #endif 
....................    } 
....................    return 0; 
.................... } 
....................  
.................... /* standard template: char *strtok(char *s1, const char *s2). 
....................  
....................    Finds next token in s1 delimited by a character from separator 
....................    string s2 (which can be different from call to call).  First call 
....................    starts at beginning of s1 searching for first character NOT 
....................    contained in s2; returns 0 if none is found. 
....................    If one is found, it is the start of first token (return value). 
....................    Function then searches from there for a character contained in s2. 
....................    If none is found, current token extends to end of s1, and subsequent 
....................    searches for a token will return 0.  If one is found, it is 
....................    overwritten by '\0', which terminates current token.  Function saves 
....................    pointer to following character from which next search will start. 
....................    Each subsequent call, with 0 as first argument, starts searching 
....................    from saved pointer */ 
....................  
.................... char *strtok(char *s1, char *s2) 
.................... { 
....................    char *beg, *end; 
....................    static char *save; 
*
0019:  CLRF   20
001A:  CLRF   21
....................  
....................    beg = (s1)? s1: save; 
....................    beg += strspn(beg, s2); 
....................    if (*beg == '\0') 
....................    { 
....................       *save = ' '; 
....................       return(0); 
....................    } 
....................    end = strpbrk(beg, s2); 
....................    if (*end != '\0') 
....................    { 
....................       *end = '\0'; 
....................       end++; 
....................    } 
....................    save = end; 
....................    return(beg); 
.................... } 
....................  
.................... /*****************************************************************/ 
.................... /*Miscellaneous functions*/ 
.................... /* standard template 
.................... maps error number in errnum to an error message string 
.................... Returns: Pointer to string 
.................... */ 
.................... #ifdef _ERRNO 
.................... char * strerror(unsigned int8 errnum) 
.................... { 
.................... char s[15]; 
.................... switch( errnum) 
.................... { 
.................... case 0: 
....................    strcpy(s,"no errors"); 
....................    return s; 
.................... case EDOM : 
....................    strcpy(s,"domain error"); 
....................    return s; 
.................... case ERANGE: 
....................    strcpy(s,"range error"); 
....................    return s; 
.................... } 
.................... } 
.................... #ENDIF 
.................... /* standard template: size_t strlen(const char *s). 
....................    Computes length of s1 (preceding terminating 0) */ 
....................  
.................... unsigned int8 strlen(char *s) 
.................... { 
....................    char *sc; 
....................  
....................    for (sc = s; *sc != 0; sc++); 
....................    return(sc - s); 
.................... } 
....................  
.................... /* standard template: size_t stricmp(const char *s1, const char *s2). 
....................    Compares s1 to s2 ignoring case (upper vs. lower) */ 
....................  
.................... signed int8 stricmp(char *s1, char *s2) 
.................... { 
....................  for(; *s1==*s2||(isalpha(*s1)&&isalpha(*s2)&&(*s1==*s2+32||*s2==*s1+32)); 
....................     s1++, s2++) 
....................     if (*s1 == '\0') 
....................        return(0); 
....................  return((*s1 < *s2) ? -1: 1); 
.................... } 
....................  
....................  
.................... /* standard template: char *strlwr(char *s). 
....................    Replaces uppercase letters by lowercase; 
....................    returns pointer to new string s */ 
....................  
.................... char *strlwr(char *s) 
.................... { 
....................    char *p; 
....................  
....................    for (p = s; *p != '\0'; p++) 
....................       if (*p >= 'A' && *p <='Z') 
....................          *p += 'a' - 'A'; 
....................    return(s); 
.................... } 
....................  
....................  
.................... /************************************************************/ 
....................  
....................  
.................... #endif 
....................  
.................... #include <16f628_registradores.h>//MAPEAMENTO DE MEÓRIA DOS REGISTRADORES 
.................... //********************************************************** 
.................... //INCLUDE DE MAPEAMENTO DE MEÓRIA DOS REGISTRADORES 
.................... //ESPECIAIS E BITS DOS MESMOS PARA O mC 16f628 
.................... //ATZ: 23.09.11 
.................... //********************************************************** 
....................  
.................... #byte option_reg = 0x81 
.................... #byte status = 0x03 
.................... #byte tris_a = 0x85        //#byte - define o endereco do 
.................... #byte tris_b = 0x86        //registrador no banco de memoria 
.................... #byte port_a = 0x05 
.................... #byte port_b = 0x06 
.................... #byte intcon = 0x0b 
....................  
.................... //MÓDULO DE CAPTURA E COMPARAÇÃO 
.................... #byte ccp1con = 0x17 
.................... #byte ccpr1l = 0x15 
.................... #byte ccpr1h = 0x16 
....................  
.................... //USART 
.................... #byte txsta = 0x98 
.................... #byte rcsta = 0x18 
.................... #byte spbrg = 0x99 
.................... #byte txreg = 0x19 
.................... #byte rcreg = 0x1a 
....................  
.................... #byte pir1 = 0x0c 
.................... #byte pie1 = 0x8c 
....................  
.................... //registrador pie1 
.................... #bit  eeie = 0x8c.7 
.................... #bit  cmie = 0x8c.6 
.................... #bit  rcie = 0x8c.5 
.................... #bit  txie = 0x8c.4 
....................  
.................... #bit  ccp1ie = 0x8c.2 
.................... #bit  tmr2ie = 0x8c.1 
.................... #bit  tmr1ie = 0x8c.0 
....................  
.................... //registrador pir1 
.................... #bit  eeif = 0x0c.7 
.................... #bit  cmif = 0x0c.6 
.................... #bit  rcif = 0x0c.5 
.................... #bit  txif = 0x0c.4 
....................  
.................... #bit  ccp1if = 0x0c.2 
.................... #bit  tmr2if = 0x0c.1 
.................... #bit  tmr1if = 0x0c.0 
....................  
.................... //registrador txsta 
.................... #bit  csrc  = 0x98.7 
.................... #bit  tx9 = 0x98.6 
.................... #bit  txen = 0x98.5 
.................... #bit  sync = 0x98.4 
....................  
.................... #bit  brgh = 0x98.2 
.................... #bit  trmt = 0x98.1 
.................... #bit  tx9d = 0x98.0 
....................  
.................... //registrador rcsta 
.................... #bit  spen = 0x18.7 
.................... #bit  rx9 = 0x18.6 
.................... #bit  sren = 0x18.5 
.................... #bit  cren = 0x18.4 
.................... #bit  adden = 0x18.3 
.................... #bit  ferr = 0x18.2 
.................... #bit  oerr = 0x18.1 
.................... #bit  rx9d = 0x18.0 
....................  
.................... //registrador intcon 
.................... #bit  gie = 0x0b.7 
.................... #bit  peie = 0x0b.6 
.................... #bit  t0ie = 0x0b.5 
.................... #bit  inte = 0x0b.4 
.................... #bit  rbie = 0x0b.3 
.................... #bit  t0if = 0x0b.2 
.................... #bit  intf = 0x0b.1 
.................... #bit  rbif = 0x0b.0 
....................  
.................... #bit  trigger = port_b.3 
.................... #bit  trigger_inv =  port_b.4 
....................  
....................                                                      
....................  
.................... //**************************************************************************** 
.................... //                    CONFIGURAÇÕES DO COMPILADOR 
.................... //**************************************************************************** 
....................  
.................... #use fast_io(a)                  //modo de entrada e saida de dados que 
.................... #use fast_io(b)                  //o compilador nao configura o tris 
....................  
.................... #use delay(clock=4000000)        //clock usual 
.................... #fuses XT,WDT,NOLVP,PUT,PROTECT 
....................  
.................... //#rom 0x2100={0b00010010,0x00}    //programa os primeiros dois endereços da eeprom 
....................                                   
....................  
.................... //**************************************************************************** 
.................... //                                BIOS 
.................... //**************************************************************************** 
.................... //****************************  ENTRADAS  ************************************ 
.................... #define  botao       PIN_B0 
....................  
.................... //*****************************  SAÍDAS  ************************************* 
.................... #define  sinal       port_a,2 
....................  
.................... //**************************************************************************** 
.................... //                        CONSTANTES E VARIÁVEIS 
.................... //**************************************************************************** 
.................... #define  debouce     10 
.................... #define alarme_off_flag alarme_status,1 
....................  
.................... int   w_temp; 
.................... int   status_temp; 
.................... int count; 
....................  
.................... //**************************************************************************** 
.................... //                       Rotinas da interrupcao 
.................... //**************************************************************************** 
.................... //#inline                     //descomentar se for usar o in_line 
....................  
....................  
....................  
.................... //**************************************************************************** 
.................... //                           INTERRUPÇÕES 
.................... //**************************************************************************** 
.................... #int_global 
.................... void interrupcao(){ 
.................... restart_wdt(); 
*
0004:  CLRWDT
.................... disable_interrupts(global); 
0005:  BCF    0B.6
0006:  BCF    0B.7
0007:  BTFSC  0B.7
0008:  GOTO   006
.................... #asm 
.................... movwf w_temp 
0009:  MOVWF  22
.................... swapf status,w 
000A:  SWAPF  03,W
.................... movwf status_temp 
000B:  MOVWF  23
.................... #endasm 
....................  
....................  
.................... //*************************************************************************** 
.................... //                          FIM DA INTERRUPCAO 
.................... //*************************************************************************** 
.................... enable_interrupts(global); 
000C:  MOVLW  C0
000D:  IORWF  0B,F
.................... #asm 
.................... swapf status_temp,w 
000E:  SWAPF  23,W
.................... movwf status 
000F:  MOVWF  03
.................... swapf w_temp,f 
0010:  SWAPF  22,F
.................... swapf w_temp,w 
0011:  SWAPF  22,W
0012:  RETFIE
.................... #endasm 
.................... } 
....................  
.................... //*************************************************************************** 
.................... //                               DRIVES 
.................... //*************************************************************************** 
.................... //#include <usart.h> 
....................  
....................  
....................  
.................... //**************************************************************************** 
.................... //                             Sub-rotinas 
.................... //**************************************************************************** 
.................... trata_tecla(){     
....................  
.................... } 
....................  
....................  
.................... //**************************************************************************** 
.................... //                          Rotina Principal 
.................... //**************************************************************************** 
....................  
.................... void main(){ 
0013:  CLRF   04
0014:  BCF    03.7
0015:  MOVLW  1F
0016:  ANDWF  03,F
0017:  MOVLW  07
0018:  MOVWF  1F
.................... //********************** CONFIGURAÇÕES INICIAIS ***************************** 
....................       setup_timer_0(rtcc_internal); //clock interno, prescaler 1:2 
*
001B:  BSF    03.5
001C:  MOVF   01,W
001D:  ANDLW  C0
001E:  MOVWF  01
....................       setup_timer_1(t1_internal|t1_div_by_8);  
001F:  MOVLW  B5
0020:  BCF    03.5
0021:  MOVWF  10
....................       setup_wdt(wdt_288ms); 
0022:  MOVLW  0C
0023:  MOVWF  77
0024:  CLRF   01
0025:  MOVLW  81
0026:  MOVWF  04
0027:  BCF    03.7
0028:  MOVF   00,W
0029:  ANDLW  F0
002A:  IORLW  07
002B:  MOVWF  00
002C:  CLRWDT
002D:  MOVF   00,W
002E:  ANDLW  F7
002F:  BTFSC  77.3
0030:  ANDLW  F0
0031:  IORWF  77,W
0032:  MOVWF  00
....................       disable_interrupts(global); 
0033:  BCF    0B.6
0034:  BCF    0B.7
0035:  BTFSC  0B.7
0036:  GOTO   034
....................       bit_set(option_reg,7);    //sem pull-up 
0037:  BSF    03.5
0038:  BSF    01.7
....................  
.................... //    Configuração do tris 
.................... //    Bit porta: 76543210 
....................       tris_a = 0b00011000; 
0039:  MOVLW  18
003A:  MOVWF  05
....................       tris_b = 0b00011111; 
003B:  MOVLW  1F
003C:  MOVWF  06
.................... //******************** INICIALIZAÇÃO DE VARIÁVEIS *************************** 
....................       count = 0; 
003D:  BCF    03.5
003E:  CLRF   24
....................        
.................... //**************************************************************************** 
.................... //                             INICIO DO LOOP 
.................... //**************************************************************************** 
....................       while(1){   
....................       restart_wdt(); 
003F:  CLRWDT
....................        
....................       } 
0040:  GOTO   03F
.................... //********************************* FIM ************************************** 
.................... } 
....................  
....................  
....................  
....................  
....................  
....................  
....................  
....................  
....................  
....................  
....................  
....................  
....................  
....................  
....................  
....................  
....................  
....................  
....................  
....................  
....................  
....................  
....................  
....................  
....................  
....................  
....................  
....................  
....................  
....................  
....................  
....................  
....................  
....................  
....................  
....................  
....................  
....................  
....................  
....................  
....................  
....................  
....................  
....................  
....................  
....................  
....................  
....................  
....................  
....................  
0041:  SLEEP

Configuration Fuses:
   Word  1: 0365   XT WDT PUT PROTECT BROWNOUT MCLR NOLVP NOCPD
